target datalayout = "e-m:e-p270:32:32-p271:32:32-p272:64:64-i64:64-i128:128-f80:128-n8:16:32:64-S128"
target triple = "x86_64-pc-linux-gnu"

%struct.slurm_conf_t = type { i64, ptr, i16, ptr, ptr, ptr, ptr, ptr, i16, ptr, ptr, ptr, ptr, ptr, ptr, ptr, i16, ptr, ptr, ptr, ptr, i16, ptr, ptr, ptr, i64, ptr, ptr, ptr, ptr, i16, ptr, ptr, i16, i32, ptr, i32, ptr, i32, i32, ptr, ptr, i64, i64, ptr, i16, i16, ptr, i32, i32, ptr, i32, ptr, i32, i16, i16, i16, ptr, i16, i16, ptr, ptr, i32, i16, i16, ptr, i32, i16, ptr, ptr, ptr, ptr, i16, ptr, ptr, ptr, ptr, i32, ptr, ptr, ptr, ptr, i16, i16, ptr, i32, i32, i32, i16, i16, ptr, ptr, i16, ptr, ptr, i32, i32, i32, i32, i32, i64, i32, i32, i16, ptr, ptr, i32, ptr, ptr, ptr, i16, i32, ptr, ptr, i16, ptr, ptr, i32, i16, ptr, ptr, ptr, ptr, i32, i32, i16, i16, i32, ptr, i16, ptr, i32, i32, i32, i32, i32, i32, ptr, i16, ptr, ptr, i32, i16, ptr, i32, i16, i16, ptr, ptr, ptr, i16, ptr, ptr, ptr, ptr, i16, i16, ptr, i16, ptr, i16, ptr, i16, ptr, i16, ptr, ptr, ptr, ptr, i16, ptr, ptr, ptr, i32, ptr, i32, ptr, ptr, i16, ptr, ptr, i32, i16, ptr, ptr, i16, i16, ptr, i16, ptr, ptr, ptr, i32, ptr, i16, i16, ptr, ptr, ptr, ptr, ptr, ptr, ptr, ptr, i16, i32, i16, ptr, ptr, ptr, ptr, i32, ptr, ptr, ptr, i16, ptr, ptr, ptr, i16, ptr, i16, ptr, i16, i16, ptr }
%struct.job_record = type { i32, ptr, ptr, ptr, ptr, i16, i32, i32, i32, ptr, i32, ptr, ptr, i16, ptr, double, i64, ptr, ptr, ptr, ptr, ptr, ptr, i32, ptr, i32, i64, i64, i32, i32, ptr, i16, i64, i64, i8, i32, ptr, ptr, ptr, ptr, ptr, ptr, ptr, ptr, i32, ptr, ptr, i32, ptr, i32, ptr, i32, ptr, i32, ptr, ptr, ptr, ptr, ptr, ptr, i32, i16, i64, ptr, ptr, ptr, ptr, %struct.acct_policy_limit_set_t, i16, ptr, ptr, ptr, ptr, ptr, i32, ptr, ptr, ptr, ptr, ptr, i32, i32, ptr, ptr, ptr, i16, ptr, ptr, i8, ptr, ptr, i64, i64, i8, i32, i32, i8, i32, ptr, i32, i64, i32, ptr, ptr, ptr, i8, i16, i64, i32, ptr, ptr, ptr, ptr, ptr, i16, i32, ptr, ptr, ptr, ptr, i32, ptr, i32, i16, i64, ptr, i32, i32, ptr, i64, ptr, ptr, i64, i32, i32, i64, i32, i32, ptr, ptr, ptr, ptr, ptr, ptr, ptr, ptr, ptr, ptr, ptr, ptr, i32, ptr, i16, i16, i16, i16, ptr, i32, i32, i8, i64 }
%struct.acct_policy_limit_set_t = type { i16, i16, ptr }
%struct.slurm_step_id_msg = type { i64, i32, i32, i32 }
%struct.agent_arg_t = type { i32, i16, i32, i8, ptr, ptr, i16, i32, ptr, i16 }
%struct.stepmgr_ops_t = type { ptr, ptr, ptr, ptr, ptr, ptr, ptr, ptr, ptr, ptr }
%struct.srun_timeout_msg = type { %struct.slurm_step_id_msg, i64 }

@.str = private unnamed_addr constant [12 x i8] c"srun_comm.c\00", align 1
@slurm_conf = external global %struct.slurm_conf_t, align 8
@stepmgr_ops = external global ptr, align 8
@__func__.srun_timeout = private unnamed_addr constant [13 x i8] c"srun_timeout\00", align 1
@__func__._srun_agent_launch = private unnamed_addr constant [19 x i8] c"_srun_agent_launch\00", align 1

; Function Attrs: nounwind uwtable
define internal void @_srun_agent_launch(ptr noundef %0, ptr noundef %1, i32 noundef %2, ptr noundef %3, i32 noundef %4, i16 noundef zeroext %5) #0 {
  %7 = alloca ptr, align 8
  %8 = alloca ptr, align 8
  %9 = alloca i32, align 4
  %10 = alloca ptr, align 8
  %11 = alloca i32, align 4
  %12 = alloca i16, align 2
  %13 = alloca ptr, align 8
  store ptr %0, ptr %7, align 8
  store ptr %1, ptr %8, align 8
  store i32 %2, ptr %9, align 4
  store ptr %3, ptr %10, align 8
  store i32 %4, ptr %11, align 4
  store i16 %5, ptr %12, align 2
  call void @llvm.lifetime.start.p0(i64 8, ptr %13) #6
  %14 = call ptr @slurm_xcalloc(i64 noundef 1, i64 noundef 56, i1 noundef zeroext true, i1 noundef zeroext false, ptr noundef @.str, i32 noundef 61, ptr noundef @__func__._srun_agent_launch)
  store ptr %14, ptr %13, align 8
  %15 = load ptr, ptr %13, align 8
  %16 = getelementptr inbounds nuw %struct.agent_arg_t, ptr %15, i32 0, i32 0
  store i32 1, ptr %16, align 8
  %17 = load ptr, ptr %13, align 8
  %18 = getelementptr inbounds nuw %struct.agent_arg_t, ptr %17, i32 0, i32 1
  store i16 0, ptr %18, align 4
  %19 = load ptr, ptr %7, align 8
  %20 = load ptr, ptr %13, align 8
  %21 = getelementptr inbounds nuw %struct.agent_arg_t, ptr %20, i32 0, i32 4
  store ptr %19, ptr %21, align 8
  %22 = load ptr, ptr %8, align 8
  %23 = call ptr @hostlist_create(ptr noundef %22)
  %24 = load ptr, ptr %13, align 8
  %25 = getelementptr inbounds nuw %struct.agent_arg_t, ptr %24, i32 0, i32 5
  store ptr %23, ptr %25, align 8
  %26 = load i32, ptr %9, align 4
  %27 = load ptr, ptr %13, align 8
  %28 = getelementptr inbounds nuw %struct.agent_arg_t, ptr %27, i32 0, i32 7
  store i32 %26, ptr %28, align 4
  %29 = load ptr, ptr %10, align 8
  %30 = load ptr, ptr %13, align 8
  %31 = getelementptr inbounds nuw %struct.agent_arg_t, ptr %30, i32 0, i32 8
  store ptr %29, ptr %31, align 8
  %32 = load ptr, ptr %13, align 8
  %33 = load i32, ptr %11, align 4
  call void @set_agent_arg_r_uid(ptr noundef %32, i32 noundef %33)
  %34 = load i16, ptr %12, align 2
  %35 = zext i16 %34 to i32
  %36 = icmp slt i32 11008, %35
  br i1 %36, label %37, label %38

37:                                               ; preds = %6
  br label %41

38:                                               ; preds = %6
  %39 = load i16, ptr %12, align 2
  %40 = zext i16 %39 to i32
  br label %41

41:                                               ; preds = %38, %37
  %42 = phi i32 [ 11008, %37 ], [ %40, %38 ]
  %43 = trunc i32 %42 to i16
  %44 = load ptr, ptr %13, align 8
  %45 = getelementptr inbounds nuw %struct.agent_arg_t, ptr %44, i32 0, i32 6
  store i16 %43, ptr %45, align 8
  %46 = load ptr, ptr @stepmgr_ops, align 8
  %47 = getelementptr inbounds nuw %struct.stepmgr_ops_t, ptr %46, i32 0, i32 8
  %48 = load ptr, ptr %47, align 8
  %49 = load ptr, ptr %13, align 8
  call void %48(ptr noundef %49)
  call void @llvm.lifetime.end.p0(i64 8, ptr %13) #6
  ret void
}

; Function Attrs: nounwind uwtable
define dso_local void @srun_timeout(ptr noundef %0) #0 {
  %2 = alloca ptr, align 8
  %3 = alloca i8, align 1
  %4 = alloca ptr, align 8
  %5 = alloca ptr, align 8
  %6 = alloca i32, align 4
  %7 = alloca ptr, align 8
  store ptr %0, ptr %2, align 8
  call void @llvm.lifetime.start.p0(i64 1, ptr %3) #6
  store i8 1, ptr %3, align 1
  call void @llvm.lifetime.start.p0(i64 8, ptr %4) #6
  call void @llvm.lifetime.start.p0(i64 8, ptr %5) #6
  %8 = load ptr, ptr %2, align 8
  %9 = getelementptr inbounds nuw %struct.job_record, ptr %8, i32 0, i32 60
  %10 = load i32, ptr %9, align 8
  %11 = and i32 %10, 255
  %12 = icmp eq i32 %11, 1
  br i1 %12, label %14, label %13

13:                                               ; preds = %1
  store i32 1, ptr %6, align 4
  br label %116

14:                                               ; preds = %1
  %15 = load ptr, ptr %2, align 8
  %16 = getelementptr inbounds nuw %struct.job_record, ptr %15, i32 0, i32 128
  %17 = load ptr, ptr %16, align 8
  %18 = call i32 @list_for_each(ptr noundef %17, ptr noundef @_srun_step_timeout, ptr noundef null)
  %19 = call zeroext i1 @running_in_slurmctld()
  br i1 %19, label %20, label %58

20:                                               ; preds = %14
  %21 = load ptr, ptr %2, align 8
  %22 = getelementptr inbounds nuw %struct.job_record, ptr %21, i32 0, i32 14
  %23 = load ptr, ptr %22, align 8
  %24 = icmp ne ptr %23, null
  br i1 %24, label %25, label %58

25:                                               ; preds = %20
  %26 = load ptr, ptr %2, align 8
  %27 = getelementptr inbounds nuw %struct.job_record, ptr %26, i32 0, i32 16
  %28 = load i64, ptr %27, align 8
  %29 = and i64 %28, 2199023255552
  %30 = icmp ne i64 %29, 0
  br i1 %30, label %31, label %58

31:                                               ; preds = %25
  call void @llvm.lifetime.start.p0(i64 8, ptr %7) #6
  %32 = call ptr @slurm_xcalloc(i64 noundef 1, i64 noundef 32, i1 noundef zeroext true, i1 noundef zeroext false, ptr noundef @.str, i32 noundef 313, ptr noundef @__func__.srun_timeout)
  store ptr %32, ptr %7, align 8
  %33 = load ptr, ptr %2, align 8
  %34 = getelementptr inbounds nuw %struct.job_record, ptr %33, i32 0, i32 53
  %35 = load i32, ptr %34, align 8
  %36 = load ptr, ptr %7, align 8
  %37 = getelementptr inbounds nuw %struct.srun_timeout_msg, ptr %36, i32 0, i32 0
  %38 = getelementptr inbounds nuw %struct.slurm_step_id_msg, ptr %37, i32 0, i32 1
  store i32 %35, ptr %38, align 8
  %39 = load ptr, ptr %7, align 8
  %40 = getelementptr inbounds nuw %struct.srun_timeout_msg, ptr %39, i32 0, i32 0
  %41 = getelementptr inbounds nuw %struct.slurm_step_id_msg, ptr %40, i32 0, i32 3
  store i32 -2, ptr %41, align 8
  %42 = load ptr, ptr %7, align 8
  %43 = getelementptr inbounds nuw %struct.srun_timeout_msg, ptr %42, i32 0, i32 0
  %44 = getelementptr inbounds nuw %struct.slurm_step_id_msg, ptr %43, i32 0, i32 2
  store i32 -2, ptr %44, align 4
  %45 = load ptr, ptr %2, align 8
  %46 = getelementptr inbounds nuw %struct.job_record, ptr %45, i32 0, i32 32
  %47 = load i64, ptr %46, align 8
  %48 = load ptr, ptr %7, align 8
  %49 = getelementptr inbounds nuw %struct.srun_timeout_msg, ptr %48, i32 0, i32 1
  store i64 %47, ptr %49, align 8
  %50 = load ptr, ptr %2, align 8
  %51 = getelementptr inbounds nuw %struct.job_record, ptr %50, i32 0, i32 14
  %52 = load ptr, ptr %51, align 8
  %53 = load ptr, ptr %7, align 8
  %54 = load i32, ptr getelementptr inbounds nuw (%struct.slurm_conf_t, ptr @slurm_conf, i32 0, i32 175), align 8
  %55 = load ptr, ptr %2, align 8
  %56 = getelementptr inbounds nuw %struct.job_record, ptr %55, i32 0, i32 123
  %57 = load i16, ptr %56, align 4
  call void @_srun_agent_launch(ptr noundef null, ptr noundef %52, i32 noundef 7002, ptr noundef %53, i32 noundef %54, i16 noundef zeroext %57)
  store i8 0, ptr %3, align 1
  call void @llvm.lifetime.end.p0(i64 8, ptr %7) #6
  br label %58

58:                                               ; preds = %31, %25, %20, %14
  %59 = load i8, ptr %3, align 1, !range !8, !noundef !9
  %60 = trunc i8 %59 to i1
  br i1 %60, label %61, label %115

61:                                               ; preds = %58
  %62 = load ptr, ptr %2, align 8
  %63 = getelementptr inbounds nuw %struct.job_record, ptr %62, i32 0, i32 85
  %64 = load i16, ptr %63, align 8
  %65 = zext i16 %64 to i32
  %66 = icmp ne i32 %65, 0
  br i1 %66, label %67, label %115

67:                                               ; preds = %61
  %68 = load ptr, ptr %2, align 8
  %69 = getelementptr inbounds nuw %struct.job_record, ptr %68, i32 0, i32 4
  %70 = load ptr, ptr %69, align 8
  %71 = icmp ne ptr %70, null
  br i1 %71, label %72, label %115

72:                                               ; preds = %67
  %73 = load ptr, ptr %2, align 8
  %74 = getelementptr inbounds nuw %struct.job_record, ptr %73, i32 0, i32 116
  %75 = load ptr, ptr %74, align 8
  %76 = icmp ne ptr %75, null
  br i1 %76, label %77, label %115

77:                                               ; preds = %72
  %78 = call ptr @slurm_xcalloc(i64 noundef 1, i64 noundef 128, i1 noundef zeroext true, i1 noundef zeroext false, ptr noundef @.str, i32 noundef 329, ptr noundef @__func__.srun_timeout)
  store ptr %78, ptr %4, align 8
  %79 = load ptr, ptr %4, align 8
  %80 = load ptr, ptr %2, align 8
  %81 = getelementptr inbounds nuw %struct.job_record, ptr %80, i32 0, i32 85
  %82 = load i16, ptr %81, align 8
  %83 = load ptr, ptr %2, align 8
  %84 = getelementptr inbounds nuw %struct.job_record, ptr %83, i32 0, i32 116
  %85 = load ptr, ptr %84, align 8
  call void @slurm_set_addr(ptr noundef %79, i16 noundef zeroext %82, ptr noundef %85)
  %86 = call ptr @slurm_xcalloc(i64 noundef 1, i64 noundef 32, i1 noundef zeroext true, i1 noundef zeroext false, ptr noundef @.str, i32 noundef 331, ptr noundef @__func__.srun_timeout)
  store ptr %86, ptr %5, align 8
  %87 = load ptr, ptr %2, align 8
  %88 = getelementptr inbounds nuw %struct.job_record, ptr %87, i32 0, i32 53
  %89 = load i32, ptr %88, align 8
  %90 = load ptr, ptr %5, align 8
  %91 = getelementptr inbounds nuw %struct.srun_timeout_msg, ptr %90, i32 0, i32 0
  %92 = getelementptr inbounds nuw %struct.slurm_step_id_msg, ptr %91, i32 0, i32 1
  store i32 %89, ptr %92, align 8
  %93 = load ptr, ptr %5, align 8
  %94 = getelementptr inbounds nuw %struct.srun_timeout_msg, ptr %93, i32 0, i32 0
  %95 = getelementptr inbounds nuw %struct.slurm_step_id_msg, ptr %94, i32 0, i32 3
  store i32 -2, ptr %95, align 8
  %96 = load ptr, ptr %5, align 8
  %97 = getelementptr inbounds nuw %struct.srun_timeout_msg, ptr %96, i32 0, i32 0
  %98 = getelementptr inbounds nuw %struct.slurm_step_id_msg, ptr %97, i32 0, i32 2
  store i32 -2, ptr %98, align 4
  %99 = load ptr, ptr %2, align 8
  %100 = getelementptr inbounds nuw %struct.job_record, ptr %99, i32 0, i32 32
  %101 = load i64, ptr %100, align 8
  %102 = load ptr, ptr %5, align 8
  %103 = getelementptr inbounds nuw %struct.srun_timeout_msg, ptr %102, i32 0, i32 1
  store i64 %101, ptr %103, align 8
  %104 = load ptr, ptr %4, align 8
  %105 = load ptr, ptr %2, align 8
  %106 = getelementptr inbounds nuw %struct.job_record, ptr %105, i32 0, i32 4
  %107 = load ptr, ptr %106, align 8
  %108 = load ptr, ptr %5, align 8
  %109 = load ptr, ptr %2, align 8
  %110 = getelementptr inbounds nuw %struct.job_record, ptr %109, i32 0, i32 150
  %111 = load i32, ptr %110, align 8
  %112 = load ptr, ptr %2, align 8
  %113 = getelementptr inbounds nuw %struct.job_record, ptr %112, i32 0, i32 123
  %114 = load i16, ptr %113, align 4
  call void @_srun_agent_launch(ptr noundef %104, ptr noundef %107, i32 noundef 7002, ptr noundef %108, i32 noundef %111, i16 noundef zeroext %114)
  br label %115

115:                                              ; preds = %77, %72, %67, %61, %58
  store i32 0, ptr %6, align 4
  br label %116

116:                                              ; preds = %115, %13
  call void @llvm.lifetime.end.p0(i64 8, ptr %5) #6
  call void @llvm.lifetime.end.p0(i64 8, ptr %4) #6
  call void @llvm.lifetime.end.p0(i64 1, ptr %3) #6
  %117 = load i32, ptr %6, align 4
  switch i32 %117, label %119 [
    i32 0, label %118
    i32 1, label %118
  ]

118:                                              ; preds = %116, %116
  ret void

119:                                              ; preds = %116
  unreachable
}