; Function Attrs: nounwind uwtable
define dso_local void @srun_timeout(ptr noundef readonly captures(none) %0) local_unnamed_addr #0 {
  %2 = getelementptr inbounds nuw i8, ptr %0, i64 448
  %3 = load i32, ptr %2, align 8
  %4 = and i32 %3, 255
  %5 = icmp eq i32 %4, 1
  br i1 %5, label %6, label %64

6:                                                ; preds = %1
  %7 = getelementptr inbounds nuw i8, ptr %0, i64 936
  %8 = load ptr, ptr %7, align 8
  %9 = tail call i32 @list_for_each(ptr noundef %8, ptr noundef nonnull @_srun_step_timeout, ptr noundef null) #6
  %10 = tail call zeroext i1 @running_in_slurmctld() #6
  br i1 %10, label %11, label %27

11:                                               ; preds = %6
  %12 = getelementptr inbounds nuw i8, ptr %0, i64 96
  %13 = load ptr, ptr %12, align 8
  %.not = icmp eq ptr %13, null
  br i1 %.not, label %27, label %14

14:                                               ; preds = %11
  %15 = getelementptr inbounds nuw i8, ptr %0, i64 112
  %16 = load i64, ptr %15, align 8
  %17 = and i64 %16, 2199023255552
  %.not30 = icmp eq i64 %17, 0
  br i1 %.not30, label %27, label %.critedge

.critedge:                                        ; preds = %14
  %18 = tail call ptr @slurm_xcalloc(i64 noundef 1, i64 noundef 32, i1 noundef zeroext true, i1 noundef zeroext false, ptr noundef nonnull @.str, i32 noundef 313, ptr noundef nonnull @__func__.srun_timeout) #6
  %19 = getelementptr inbounds nuw i8, ptr %0, i64 392
  %20 = load i32, ptr %19, align 8
  %21 = getelementptr inbounds nuw i8, ptr %18, i64 8
  store i32 %20, ptr %21, align 8
  %22 = getelementptr inbounds nuw i8, ptr %18, i64 16
  store i32 -2, ptr %22, align 8
  %23 = getelementptr inbounds nuw i8, ptr %18, i64 12
  store i32 -2, ptr %23, align 4
  %24 = getelementptr inbounds nuw i8, ptr %0, i64 232
  %25 = load i64, ptr %24, align 8
  %26 = getelementptr inbounds nuw i8, ptr %18, i64 24
  store i64 %25, ptr %26, align 8
  br label %.sink.split

27:                                               ; preds = %6, %11, %14
  %28 = getelementptr inbounds nuw i8, ptr %0, i64 640
  %29 = load i16, ptr %28, align 8
  %.not31 = icmp eq i16 %29, 0
  br i1 %.not31, label %64, label %30

30:                                               ; preds = %27
  %31 = getelementptr inbounds nuw i8, ptr %0, i64 32
  %32 = load ptr, ptr %31, align 8
  %.not32 = icmp eq ptr %32, null
  br i1 %.not32, label %64, label %33

33:                                               ; preds = %30
  %34 = getelementptr inbounds nuw i8, ptr %0, i64 856
  %35 = load ptr, ptr %34, align 8
  %.not33 = icmp eq ptr %35, null
  br i1 %.not33, label %64, label %36

36:                                               ; preds = %33
  %37 = tail call ptr @slurm_xcalloc(i64 noundef 1, i64 noundef 128, i1 noundef zeroext true, i1 noundef zeroext false, ptr noundef nonnull @.str, i32 noundef 329, ptr noundef nonnull @__func__.srun_timeout) #6
  %38 = load i16, ptr %28, align 8
  %39 = load ptr, ptr %34, align 8
  tail call void @slurm_set_addr(ptr noundef %37, i16 noundef zeroext %38, ptr noundef %39) #6
  %40 = tail call ptr @slurm_xcalloc(i64 noundef 1, i64 noundef 32, i1 noundef zeroext true, i1 noundef zeroext false, ptr noundef nonnull @.str, i32 noundef 331, ptr noundef nonnull @__func__.srun_timeout) #6
  %41 = getelementptr inbounds nuw i8, ptr %0, i64 392
  %42 = load i32, ptr %41, align 8
  %43 = getelementptr inbounds nuw i8, ptr %40, i64 8
  store i32 %42, ptr %43, align 8
  %44 = getelementptr inbounds nuw i8, ptr %40, i64 16
  store i32 -2, ptr %44, align 8
  %45 = getelementptr inbounds nuw i8, ptr %40, i64 12
  store i32 -2, ptr %45, align 4
  %46 = getelementptr inbounds nuw i8, ptr %0, i64 232
  %47 = load i64, ptr %46, align 8
  %48 = getelementptr inbounds nuw i8, ptr %40, i64 24
  store i64 %47, ptr %48, align 8
  %49 = getelementptr inbounds nuw i8, ptr %0, i64 1096
  br label %.sink.split

.sink.split:                                      ; preds = %.critedge, %36
  %.sink52 = phi ptr [ %37, %36 ], [ null, %.critedge ]
  %.sink51.in = phi ptr [ %31, %36 ], [ %12, %.critedge ]
  %.sink43 = phi ptr [ %40, %36 ], [ %18, %.critedge ]
  %.sink42.in = phi ptr [ %49, %36 ], [ getelementptr inbounds nuw (i8, ptr @slurm_conf, i64 1168), %.critedge ]
  %.sink42 = load i32, ptr %.sink42.in, align 8
  %.sink51 = load ptr, ptr %.sink51.in, align 8
  %50 = getelementptr inbounds nuw i8, ptr %0, i64 908
  %51 = load i16, ptr %50, align 4
  %52 = tail call ptr @slurm_xcalloc(i64 noundef 1, i64 noundef 56, i1 noundef zeroext true, i1 noundef zeroext false, ptr noundef nonnull @.str, i32 noundef 61, ptr noundef nonnull @__func__._srun_agent_launch) #6
  store i32 1, ptr %52, align 8
  %53 = getelementptr inbounds nuw i8, ptr %52, i64 4
  store i16 0, ptr %53, align 4
  %54 = getelementptr inbounds nuw i8, ptr %52, i64 16
  store ptr %.sink52, ptr %54, align 8
  %55 = tail call ptr @hostlist_create(ptr noundef %.sink51) #6
  %56 = getelementptr inbounds nuw i8, ptr %52, i64 24
  store ptr %55, ptr %56, align 8
  %57 = getelementptr inbounds nuw i8, ptr %52, i64 36
  store i32 7002, ptr %57, align 4
  %58 = getelementptr inbounds nuw i8, ptr %52, i64 40
  store ptr %.sink43, ptr %58, align 8
  tail call void @set_agent_arg_r_uid(ptr noundef nonnull %52, i32 noundef %.sink42) #6
  %59 = tail call i16 @llvm.umin.i16(i16 %51, i16 11008)
  %60 = getelementptr inbounds nuw i8, ptr %52, i64 32
  store i16 %59, ptr %60, align 8
  %61 = load ptr, ptr @stepmgr_ops, align 8
  %62 = getelementptr inbounds nuw i8, ptr %61, i64 64
  %63 = load ptr, ptr %62, align 8
  tail call void %63(ptr noundef nonnull %52) #6
  br label %64

64:                                               ; preds = %.sink.split, %27, %30, %33, %1
  ret void
}